; Function Attrs: mustprogress uwtable
define hidden noundef zeroext i1 @_ZN4cvc58internal6theory7strings5utils16isCharacterRangeENS0_12NodeTemplateILb0EEE(ptr noundef readonly captures(none) %0) local_unnamed_addr #4 personality ptr @__gxx_personality_v0 {
  %2 = alloca %"class.cvc5::internal::NodeTemplate.94", align 8
  br label %3

3:                                                ; preds = %.critedge, %1
  %.not24.not.not = phi i1 [ true, %1 ], [ false, %.critedge ]
  %.01623 = phi i64 [ 0, %1 ], [ 1, %.critedge ]
  call void @llvm.lifetime.start.p0(i64 8, ptr nonnull %2) #23
  call void @llvm.experimental.noalias.scope.decl(metadata !204)
  %4 = load ptr, ptr %0, align 8, !tbaa !23, !noalias !204
  %5 = getelementptr inbounds nuw i8, ptr %4, i64 8
  %6 = load i64, ptr %5, align 8, !noalias !204
  %7 = trunc i64 %6 to i32
  %8 = and i32 %7, 1023
  %9 = icmp eq i32 %8, 1023
  %10 = select i1 %9, i32 -1, i32 %8
  %11 = call noundef i32 @_ZN4cvc58internal4kind10metaKindOfENS1_6Kind_tE(i32 noundef %10), !noalias !204
  %12 = icmp eq i32 %11, 2
  %13 = zext i1 %12 to i64
  %spec.select.i.i = add nuw nsw i64 %.01623, %13
  %14 = getelementptr inbounds nuw i8, ptr %4, i64 24
  %15 = getelementptr inbounds nuw [0 x ptr], ptr %14, i64 0, i64 %spec.select.i.i
  %16 = load ptr, ptr %15, align 8, !tbaa !39, !noalias !204
  store ptr %16, ptr %2, align 8, !tbaa !23, !alias.scope !204
  %17 = call noundef zeroext i1 @_ZNK4cvc58internal12NodeTemplateILb0EE7isConstEv(ptr noundef nonnull align 8 dereferenceable(8) %2)
  br i1 %17, label %.critedge, label %.critedge.thread

.critedge.thread:                                 ; preds = %3
  call void @llvm.lifetime.end.p0(i64 8, ptr nonnull %2) #23
  br label %.loopexit

.critedge:                                        ; preds = %3
  %18 = load ptr, ptr %0, align 8, !tbaa !23, !noalias !207
  %19 = getelementptr inbounds nuw i8, ptr %18, i64 8
  %20 = load i64, ptr %19, align 8, !noalias !207
  %21 = trunc i64 %20 to i32
  %22 = and i32 %21, 1023
  %23 = icmp eq i32 %22, 1023
  %24 = select i1 %23, i32 -1, i32 %22
  %25 = call noundef i32 @_ZN4cvc58internal4kind10metaKindOfENS1_6Kind_tE(i32 noundef %24)
  %26 = icmp eq i32 %25, 2
  %27 = zext i1 %26 to i64
  %spec.select.i.i21 = add nuw nsw i64 %.01623, %27
  %28 = getelementptr inbounds nuw i8, ptr %18, i64 24
  %29 = getelementptr inbounds nuw [0 x ptr], ptr %28, i64 0, i64 %spec.select.i.i21
  %30 = load ptr, ptr %29, align 8, !tbaa !39, !noalias !207
  %31 = call noundef nonnull align 8 dereferenceable(24) ptr @_ZNK4cvc58internal4expr9NodeValue8getConstINS0_6StringEEERKT_v(ptr noundef nonnull align 8 dereferenceable(24) %30)
  %32 = getelementptr inbounds nuw i8, ptr %31, i64 8
  %33 = load ptr, ptr %32, align 8, !tbaa !210
  %34 = load ptr, ptr %31, align 8, !tbaa !213
  %35 = ptrtoint ptr %33 to i64
  %36 = ptrtoint ptr %34 to i64
  %37 = sub i64 %35, %36
  %.not = icmp eq i64 %37, 4
  call void @llvm.lifetime.end.p0(i64 8, ptr nonnull %2) #23
  %brmerge.not = and i1 %.not24.not.not, %.not
  br i1 %brmerge.not, label %3, label %.loopexit

.loopexit:                                        ; preds = %.critedge, %.critedge.thread
  %38 = phi i1 [ false, %.critedge.thread ], [ %.not, %.critedge ]
  ret i1 %38
}